; Function Attrs: mustprogress nofree norecurse nosync nounwind willreturn memory(read, inaccessiblemem: none) uwtable
define noundef i64 @_ZNK6casadi10Integrator10next_stopBExPKd(ptr nocapture noundef nonnull readonly align 8 dereferenceable(1905) %0, i64 noundef %1, ptr noundef readonly %2) local_unnamed_addr #8 align 2 {
  %4 = getelementptr inbounds i8, ptr %0, i64 1744
  %5 = load i64, ptr %4, align 8
  %6 = icmp eq i64 %5, 0
  %7 = icmp eq ptr %2, null
  %or.cond = or i1 %7, %6
  br i1 %or.cond, label %.loopexit18, label %.preheader

.preheader:                                       ; preds = %3
  %8 = add nsw i64 %1, -1
  %9 = icmp sgt i64 %1, 0
  br i1 %9, label %.lr.ph23, label %.loopexit18

.lr.ph23:                                         ; preds = %.preheader
  %10 = sub i64 0, %5
  %11 = icmp sgt i64 %5, 0
  br i1 %11, label %.lr.ph.us, label %.loopexit18

.lr.ph.us:                                        ; preds = %.lr.ph23, %..loopexit_crit_edge.us
  %12 = phi i64 [ %22, %..loopexit_crit_edge.us ], [ %8, %.lr.ph23 ]
  %.01522.us = phi ptr [ %13, %..loopexit_crit_edge.us ], [ %2, %.lr.ph23 ]
  %13 = getelementptr inbounds double, ptr %.01522.us, i64 %10
  br label %16

14:                                               ; preds = %16
  %15 = add nuw nsw i64 %.021.us, 1
  %exitcond.not = icmp eq i64 %15, %5
  br i1 %exitcond.not, label %..loopexit_crit_edge.us, label %16, !llvm.loop !83

16:                                               ; preds = %.lr.ph.us, %14
  %.021.us = phi i64 [ 0, %.lr.ph.us ], [ %15, %14 ]
  %17 = getelementptr inbounds double, ptr %.01522.us, i64 %.021.us
  %18 = load double, ptr %17, align 8
  %19 = getelementptr inbounds double, ptr %13, i64 %.021.us
  %20 = load double, ptr %19, align 8
  %21 = fcmp une double %18, %20
  br i1 %21, label %.loopexit18, label %14

..loopexit_crit_edge.us:                          ; preds = %14
  %22 = add nsw i64 %12, -1
  %23 = icmp sgt i64 %12, 0
  br i1 %23, label %.lr.ph.us, label %.loopexit18, !llvm.loop !84

.loopexit18:                                      ; preds = %..loopexit_crit_edge.us, %16, %.lr.ph23, %.preheader, %3
  %.014 = phi i64 [ -1, %3 ], [ %8, %.preheader ], [ -1, %.lr.ph23 ], [ %12, %16 ], [ -1, %..loopexit_crit_edge.us ]
  ret i64 %.014
}